; ModuleID = 'source-C-CXX/19/769.cpp'
source_filename = "source-C-CXX/19/769.cpp"
target datalayout = "e-m:e-p270:32:32-p271:32:32-p272:64:64-i64:64-f80:128-n8:16:32:64-S128"
target triple = "x86_64-pc-linux-gnu"

%"class.std::ios_base::Init" = type { i8 }
%"class.std::basic_istream" = type { i32 (...)**, i64, %"class.std::basic_ios" }
%"class.std::basic_ios" = type { %"class.std::ios_base", %"class.std::basic_ostream"*, i8, i8, %"class.std::basic_streambuf"*, %"class.std::ctype"*, %"class.std::num_put"*, %"class.std::num_get"* }
%"class.std::ios_base" = type { i32 (...)**, i64, i64, i32, i32, i32, %"struct.std::ios_base::_Callback_list"*, %"struct.std::ios_base::_Words", [8 x %"struct.std::ios_base::_Words"], i32, %"struct.std::ios_base::_Words"*, %"class.std::locale" }
%"struct.std::ios_base::_Callback_list" = type { %"struct.std::ios_base::_Callback_list"*, void (i32, %"class.std::ios_base"*, i32)*, i32, i32 }
%"struct.std::ios_base::_Words" = type { i8*, i64 }
%"class.std::locale" = type { %"class.std::locale::_Impl"* }
%"class.std::locale::_Impl" = type { i32, %"class.std::locale::facet"**, i64, %"class.std::locale::facet"**, i8** }
%"class.std::locale::facet" = type <{ i32 (...)**, i32, [4 x i8] }>
%"class.std::basic_ostream" = type { i32 (...)**, %"class.std::basic_ios" }
%"class.std::basic_streambuf" = type { i32 (...)**, i8*, i8*, i8*, i8*, i8*, i8*, %"class.std::locale" }
%"class.std::ctype" = type <{ %"class.std::locale::facet.base", [4 x i8], %struct.__locale_struct*, i8, [7 x i8], i32*, i32*, i16*, i8, [256 x i8], [256 x i8], i8, [6 x i8] }>
%"class.std::locale::facet.base" = type <{ i32 (...)**, i32 }>
%struct.__locale_struct = type { [13 x %struct.__locale_data*], i16*, i32*, i32*, [13 x i8*] }
%struct.__locale_data = type opaque
%"class.std::num_put" = type { %"class.std::locale::facet.base", [4 x i8] }
%"class.std::num_get" = type { %"class.std::locale::facet.base", [4 x i8] }

@_ZStL8__ioinit = internal global %"class.std::ios_base::Init" zeroinitializer, align 1
@__dso_handle = external hidden global i8
@_ZSt3cin = external global %"class.std::basic_istream", align 8
@_ZSt4cout = external global %"class.std::basic_ostream", align 8
@llvm.global_ctors = appending global [1 x { i32, void ()*, i8* }] [{ i32, void ()*, i8* } { i32 65535, void ()* @_GLOBAL__sub_I_769.cpp, i8* null }]

declare void @_ZNSt8ios_base4InitC1Ev(%"class.std::ios_base::Init"* nonnull align 1 dereferenceable(1)) unnamed_addr #0

; Function Attrs: nounwind
declare void @_ZNSt8ios_base4InitD1Ev(%"class.std::ios_base::Init"* nonnull align 1 dereferenceable(1)) unnamed_addr #1

; Function Attrs: nofree nounwind
declare i32 @__cxa_atexit(void (i8*)*, i8*, i8*) local_unnamed_addr #2

; Function Attrs: mustprogress norecurse sspstrong uwtable
define dso_local i32 @main() local_unnamed_addr #3 {
  %1 = alloca [20 x i8], align 16
  %2 = alloca [4 x i8], align 1
  %3 = getelementptr inbounds [20 x i8], [20 x i8]* %1, i64 0, i64 0
  call void @llvm.lifetime.start.p0i8(i64 20, i8* nonnull %3) #8
  %4 = getelementptr inbounds [4 x i8], [4 x i8]* %2, i64 0, i64 0
  call void @llvm.lifetime.start.p0i8(i64 4, i8* nonnull %4) #8
  call void @_ZSt17__istream_extractRSiPcl(%"class.std::basic_istream"* nonnull align 8 dereferenceable(16) @_ZSt3cin, i8* nonnull %3, i64 20)
  call void @_ZSt17__istream_extractRSiPcl(%"class.std::basic_istream"* nonnull align 8 dereferenceable(16) @_ZSt3cin, i8* nonnull %4, i64 4)
  %5 = load i8*, i8** bitcast (%"class.std::basic_istream"* @_ZSt3cin to i8**), align 8, !tbaa !5
  %6 = getelementptr i8, i8* %5, i64 -24
  %7 = bitcast i8* %6 to i64*
  %8 = load i64, i64* %7, align 8
  %9 = add nsw i64 %8, 32
  %10 = getelementptr inbounds i8, i8* bitcast (%"class.std::basic_istream"* @_ZSt3cin to i8*), i64 %9
  %11 = bitcast i8* %10 to i32*
  %12 = load i32, i32* %11, align 8, !tbaa !8
  %13 = and i32 %12, 5
  %14 = icmp eq i32 %13, 0
  br i1 %14, label %15, label %161

15:                                               ; preds = %0
  %16 = ptrtoint [20 x i8]* %1 to i64
  %17 = getelementptr inbounds [4 x i8], [4 x i8]* %2, i64 0, i64 1
  %18 = getelementptr inbounds [4 x i8], [4 x i8]* %2, i64 0, i64 2
  %19 = add i64 %16, -1
  br label %20

20:                                               ; preds = %15, %147
  %21 = call i64 @strlen(i8* noundef nonnull %3) #9
  %22 = getelementptr inbounds [20 x i8], [20 x i8]* %1, i64 0, i64 %21
  %23 = icmp eq i64 %21, 0
  br i1 %23, label %44, label %24

24:                                               ; preds = %20
  %25 = add i64 %21, -1
  %26 = and i64 %21, 3
  %27 = icmp eq i64 %26, 0
  br i1 %27, label %39, label %28

28:                                               ; preds = %24, %28
  %29 = phi i8* [ %35, %28 ], [ %3, %24 ]
  %30 = phi i8* [ %36, %28 ], [ %3, %24 ]
  %31 = phi i64 [ %37, %28 ], [ %26, %24 ]
  %32 = load i8, i8* %30, align 1, !tbaa !18
  %33 = load i8, i8* %29, align 1, !tbaa !18
  %34 = icmp sgt i8 %32, %33
  %35 = select i1 %34, i8* %30, i8* %29
  %36 = getelementptr inbounds i8, i8* %30, i64 1
  %37 = add i64 %31, -1
  %38 = icmp eq i64 %37, 0
  br i1 %38, label %39, label %28, !llvm.loop !19

39:                                               ; preds = %28, %24
  %40 = phi i8* [ undef, %24 ], [ %35, %28 ]
  %41 = phi i8* [ %3, %24 ], [ %35, %28 ]
  %42 = phi i8* [ %3, %24 ], [ %36, %28 ]
  %43 = icmp ult i64 %25, 3
  br i1 %43, label %44, label %65

44:                                               ; preds = %39, %65, %20
  %45 = phi i8* [ %3, %20 ], [ %40, %39 ], [ %86, %65 ]
  %46 = ptrtoint i8* %45 to i64
  %47 = icmp eq i8* %22, %45
  br i1 %47, label %89, label %48

48:                                               ; preds = %44
  %49 = sub i64 %21, %46
  %50 = add i64 %19, %21
  %51 = sub i64 %50, %46
  %52 = and i64 %49, 7
  %53 = icmp eq i64 %52, 0
  br i1 %53, label %62, label %54

54:                                               ; preds = %48, %54
  %55 = phi i8* [ %59, %54 ], [ %22, %48 ]
  %56 = phi i64 [ %60, %54 ], [ %52, %48 ]
  %57 = load i8, i8* %55, align 1, !tbaa !18
  %58 = getelementptr inbounds i8, i8* %55, i64 3
  store i8 %57, i8* %58, align 1, !tbaa !18
  %59 = getelementptr inbounds i8, i8* %55, i64 -1
  %60 = add i64 %56, -1
  %61 = icmp eq i64 %60, 0
  br i1 %61, label %62, label %54, !llvm.loop !21

62:                                               ; preds = %54, %48
  %63 = phi i8* [ %22, %48 ], [ %59, %54 ]
  %64 = icmp ult i64 %51, 7
  br i1 %64, label %89, label %107

65:                                               ; preds = %39, %65
  %66 = phi i8* [ %86, %65 ], [ %41, %39 ]
  %67 = phi i8* [ %87, %65 ], [ %42, %39 ]
  %68 = load i8, i8* %67, align 1, !tbaa !18
  %69 = load i8, i8* %66, align 1, !tbaa !18
  %70 = icmp sgt i8 %68, %69
  %71 = select i1 %70, i8* %67, i8* %66
  %72 = getelementptr inbounds i8, i8* %67, i64 1
  %73 = load i8, i8* %72, align 1, !tbaa !18
  %74 = load i8, i8* %71, align 1, !tbaa !18
  %75 = icmp sgt i8 %73, %74
  %76 = select i1 %75, i8* %72, i8* %71
  %77 = getelementptr inbounds i8, i8* %67, i64 2
  %78 = load i8, i8* %77, align 1, !tbaa !18
  %79 = load i8, i8* %76, align 1, !tbaa !18
  %80 = icmp sgt i8 %78, %79
  %81 = select i1 %80, i8* %77, i8* %76
  %82 = getelementptr inbounds i8, i8* %67, i64 3
  %83 = load i8, i8* %82, align 1, !tbaa !18
  %84 = load i8, i8* %81, align 1, !tbaa !18
  %85 = icmp sgt i8 %83, %84
  %86 = select i1 %85, i8* %82, i8* %81
  %87 = getelementptr inbounds i8, i8* %67, i64 4
  %88 = icmp eq i8* %87, %22
  br i1 %88, label %44, label %65, !llvm.loop !22

89:                                               ; preds = %62, %107, %44
  %90 = getelementptr inbounds i8, i8* %45, i64 1
  %91 = load i8, i8* %4, align 1, !tbaa !18
  store i8 %91, i8* %90, align 1, !tbaa !18
  %92 = getelementptr inbounds i8, i8* %45, i64 2
  %93 = load i8, i8* %17, align 1, !tbaa !18
  store i8 %93, i8* %92, align 1, !tbaa !18
  %94 = getelementptr inbounds i8, i8* %45, i64 3
  %95 = load i8, i8* %18, align 1, !tbaa !18
  store i8 %95, i8* %94, align 1, !tbaa !18
  %96 = call i64 @strlen(i8* noundef nonnull dereferenceable(1) %3) #8
  %97 = call nonnull align 8 dereferenceable(8) %"class.std::basic_ostream"* @_ZSt16__ostream_insertIcSt11char_traitsIcEERSt13basic_ostreamIT_T0_ES6_PKS3_l(%"class.std::basic_ostream"* nonnull align 8 dereferenceable(8) @_ZSt4cout, i8* nonnull %3, i64 %96)
  %98 = load i8*, i8** bitcast (%"class.std::basic_ostream"* @_ZSt4cout to i8**), align 8, !tbaa !5
  %99 = getelementptr i8, i8* %98, i64 -24
  %100 = bitcast i8* %99 to i64*
  %101 = load i64, i64* %100, align 8
  %102 = add nsw i64 %101, 240
  %103 = getelementptr inbounds i8, i8* bitcast (%"class.std::basic_ostream"* @_ZSt4cout to i8*), i64 %102
  %104 = bitcast i8* %103 to %"class.std::ctype"**
  %105 = load %"class.std::ctype"*, %"class.std::ctype"** %104, align 8, !tbaa !24
  %106 = icmp eq %"class.std::ctype"* %105, null
  br i1 %106, label %133, label %134

107:                                              ; preds = %62, %107
  %108 = phi i8* [ %131, %107 ], [ %63, %62 ]
  %109 = load i8, i8* %108, align 1, !tbaa !18
  %110 = getelementptr inbounds i8, i8* %108, i64 3
  store i8 %109, i8* %110, align 1, !tbaa !18
  %111 = getelementptr inbounds i8, i8* %108, i64 -1
  %112 = load i8, i8* %111, align 1, !tbaa !18
  %113 = getelementptr inbounds i8, i8* %108, i64 2
  store i8 %112, i8* %113, align 1, !tbaa !18
  %114 = getelementptr inbounds i8, i8* %108, i64 -2
  %115 = load i8, i8* %114, align 1, !tbaa !18
  %116 = getelementptr inbounds i8, i8* %108, i64 1
  store i8 %115, i8* %116, align 1, !tbaa !18
  %117 = getelementptr inbounds i8, i8* %108, i64 -3
  %118 = load i8, i8* %117, align 1, !tbaa !18
  store i8 %118, i8* %108, align 1, !tbaa !18
  %119 = getelementptr inbounds i8, i8* %108, i64 -4
  %120 = load i8, i8* %119, align 1, !tbaa !18
  %121 = getelementptr inbounds i8, i8* %108, i64 -1
  store i8 %120, i8* %121, align 1, !tbaa !18
  %122 = getelementptr inbounds i8, i8* %108, i64 -5
  %123 = load i8, i8* %122, align 1, !tbaa !18
  %124 = getelementptr inbounds i8, i8* %108, i64 -2
  store i8 %123, i8* %124, align 1, !tbaa !18
  %125 = getelementptr inbounds i8, i8* %108, i64 -6
  %126 = load i8, i8* %125, align 1, !tbaa !18
  %127 = getelementptr inbounds i8, i8* %108, i64 -3
  store i8 %126, i8* %127, align 1, !tbaa !18
  %128 = getelementptr inbounds i8, i8* %108, i64 -7
  %129 = load i8, i8* %128, align 1, !tbaa !18
  %130 = getelementptr inbounds i8, i8* %108, i64 -4
  store i8 %129, i8* %130, align 1, !tbaa !18
  %131 = getelementptr inbounds i8, i8* %108, i64 -8
  %132 = icmp eq i8* %131, %45
  br i1 %132, label %89, label %107, !llvm.loop !27

133:                                              ; preds = %89
  call void @_ZSt16__throw_bad_castv() #10
  unreachable

134:                                              ; preds = %89
  %135 = getelementptr inbounds %"class.std::ctype", %"class.std::ctype"* %105, i64 0, i32 8
  %136 = load i8, i8* %135, align 8, !tbaa !28
  %137 = icmp eq i8 %136, 0
  br i1 %137, label %141, label %138

138:                                              ; preds = %134
  %139 = getelementptr inbounds %"class.std::ctype", %"class.std::ctype"* %105, i64 0, i32 9, i64 10
  %140 = load i8, i8* %139, align 1, !tbaa !18
  br label %147

141:                                              ; preds = %134
  call void @_ZNKSt5ctypeIcE13_M_widen_initEv(%"class.std::ctype"* nonnull align 8 dereferenceable(570) %105)
  %142 = bitcast %"class.std::ctype"* %105 to i8 (%"class.std::ctype"*, i8)***
  %143 = load i8 (%"class.std::ctype"*, i8)**, i8 (%"class.std::ctype"*, i8)*** %142, align 8, !tbaa !5
  %144 = getelementptr inbounds i8 (%"class.std::ctype"*, i8)*, i8 (%"class.std::ctype"*, i8)** %143, i64 6
  %145 = load i8 (%"class.std::ctype"*, i8)*, i8 (%"class.std::ctype"*, i8)** %144, align 8
  %146 = call signext i8 %145(%"class.std::ctype"* nonnull align 8 dereferenceable(570) %105, i8 signext 10)
  br label %147

147:                                              ; preds = %138, %141
  %148 = phi i8 [ %140, %138 ], [ %146, %141 ]
  %149 = call nonnull align 8 dereferenceable(8) %"class.std::basic_ostream"* @_ZNSo3putEc(%"class.std::basic_ostream"* nonnull align 8 dereferenceable(8) @_ZSt4cout, i8 signext %148)
  %150 = call nonnull align 8 dereferenceable(8) %"class.std::basic_ostream"* @_ZNSo5flushEv(%"class.std::basic_ostream"* nonnull align 8 dereferenceable(8) %149)
  call void @_ZSt17__istream_extractRSiPcl(%"class.std::basic_istream"* nonnull align 8 dereferenceable(16) @_ZSt3cin, i8* nonnull %3, i64 20)
  call void @_ZSt17__istream_extractRSiPcl(%"class.std::basic_istream"* nonnull align 8 dereferenceable(16) @_ZSt3cin, i8* nonnull %4, i64 4)
  %151 = load i8*, i8** bitcast (%"class.std::basic_istream"* @_ZSt3cin to i8**), align 8, !tbaa !5
  %152 = getelementptr i8, i8* %151, i64 -24
  %153 = bitcast i8* %152 to i64*
  %154 = load i64, i64* %153, align 8
  %155 = add nsw i64 %154, 32
  %156 = getelementptr inbounds i8, i8* bitcast (%"class.std::basic_istream"* @_ZSt3cin to i8*), i64 %155
  %157 = bitcast i8* %156 to i32*
  %158 = load i32, i32* %157, align 8, !tbaa !8
  %159 = and i32 %158, 5
  %160 = icmp eq i32 %159, 0
  br i1 %160, label %20, label %161, !llvm.loop !30

161:                                              ; preds = %147, %0
  call void @llvm.lifetime.end.p0i8(i64 4, i8* nonnull %4) #8
  call void @llvm.lifetime.end.p0i8(i64 20, i8* nonnull %3) #8
  ret i32 0
}

; Function Attrs: argmemonly mustprogress nofree nosync nounwind willreturn
declare void @llvm.lifetime.start.p0i8(i64 immarg, i8* nocapture) #4

; Function Attrs: argmemonly mustprogress nofree nounwind readonly willreturn
declare i64 @strlen(i8* nocapture) local_unnamed_addr #5

; Function Attrs: argmemonly mustprogress nofree nosync nounwind willreturn
declare void @llvm.lifetime.end.p0i8(i64 immarg, i8* nocapture) #4

declare void @_ZSt17__istream_extractRSiPcl(%"class.std::basic_istream"* nonnull align 8 dereferenceable(16), i8*, i64) local_unnamed_addr #0

declare nonnull align 8 dereferenceable(8) %"class.std::basic_ostream"* @_ZSt16__ostream_insertIcSt11char_traitsIcEERSt13basic_ostreamIT_T0_ES6_PKS3_l(%"class.std::basic_ostream"* nonnull align 8 dereferenceable(8), i8*, i64) local_unnamed_addr #0

declare nonnull align 8 dereferenceable(8) %"class.std::basic_ostream"* @_ZNSo3putEc(%"class.std::basic_ostream"* nonnull align 8 dereferenceable(8), i8 signext) local_unnamed_addr #0

declare nonnull align 8 dereferenceable(8) %"class.std::basic_ostream"* @_ZNSo5flushEv(%"class.std::basic_ostream"* nonnull align 8 dereferenceable(8)) local_unnamed_addr #0

; Function Attrs: noreturn
declare void @_ZSt16__throw_bad_castv() local_unnamed_addr #6

declare void @_ZNKSt5ctypeIcE13_M_widen_initEv(%"class.std::ctype"* nonnull align 8 dereferenceable(570)) local_unnamed_addr #0

; Function Attrs: sspstrong uwtable
define internal void @_GLOBAL__sub_I_769.cpp() #7 section ".text.startup" {
  tail call void @_ZNSt8ios_base4InitC1Ev(%"class.std::ios_base::Init"* nonnull align 1 dereferenceable(1) @_ZStL8__ioinit)
  %1 = tail call i32 @__cxa_atexit(void (i8*)* bitcast (void (%"class.std::ios_base::Init"*)* @_ZNSt8ios_base4InitD1Ev to void (i8*)*), i8* getelementptr inbounds (%"class.std::ios_base::Init", %"class.std::ios_base::Init"* @_ZStL8__ioinit, i64 0, i32 0), i8* nonnull @__dso_handle) #8
  ret void
}


!llvm.module.flags = !{!0, !1, !2, !3}
!llvm.ident = !{!4}

!0 = !{i32 1, !"wchar_size", i32 4}
!1 = !{i32 7, !"PIC Level", i32 2}
!2 = !{i32 7, !"PIE Level", i32 2}
!3 = !{i32 7, !"uwtable", i32 1}
!4 = !{!"clang version 13.0.0"}
!5 = !{!6, !6, i64 0}
!6 = !{!"vtable pointer", !7, i64 0}
!7 = !{!"Simple C++ TBAA"}
!8 = !{!9, !13, i64 32}
!9 = !{!"_ZTSSt8ios_base", !10, i64 8, !10, i64 16, !12, i64 24, !13, i64 28, !13, i64 32, !14, i64 40, !15, i64 48, !11, i64 64, !16, i64 192, !14, i64 200, !17, i64 208}
!10 = !{!"long", !11, i64 0}
!11 = !{!"omnipotent char", !7, i64 0}
!12 = !{!"_ZTSSt13_Ios_Fmtflags", !11, i64 0}
!13 = !{!"_ZTSSt12_Ios_Iostate", !11, i64 0}
!14 = !{!"any pointer", !11, i64 0}
!15 = !{!"_ZTSNSt8ios_base6_WordsE", !14, i64 0, !10, i64 8}
!16 = !{!"int", !11, i64 0}
!17 = !{!"_ZTSSt6locale", !14, i64 0}
!18 = !{!11, !11, i64 0}
!19 = distinct !{!19, !20}
!20 = !{!"llvm.loop.unroll.disable"}
!21 = distinct !{!21, !20}
!22 = distinct !{!22, !23}
!23 = !{!"llvm.loop.mustprogress"}
!24 = !{!25, !14, i64 240}
!25 = !{!"_ZTSSt9basic_iosIcSt11char_traitsIcEE", !14, i64 216, !11, i64 224, !26, i64 225, !14, i64 232, !14, i64 240, !14, i64 248, !14, i64 256}
!26 = !{!"bool", !11, i64 0}
!27 = distinct !{!27, !23}
!28 = !{!29, !11, i64 56}
!29 = !{!"_ZTSSt5ctypeIcE", !14, i64 16, !26, i64 24, !14, i64 32, !14, i64 40, !14, i64 48, !11, i64 56, !11, i64 57, !11, i64 313, !11, i64 569}
!30 = distinct !{!30, !23}
